; ModuleID = '22/411.c'
source_filename = "22/411.c"
target datalayout = "e-m:e-p270:32:32-p271:32:32-p272:64:64-i64:64-f80:128-n8:16:32:64-S128"
target triple = "x86_64-pc-linux-gnu"

@.str = private unnamed_addr constant [5 x i8] c"%d%c\00", align 1
@.str.1 = private unnamed_addr constant [3 x i8] c"No\00", align 1
@.str.2 = private unnamed_addr constant [3 x i8] c"%d\00", align 1

; Function Attrs: noinline nounwind uwtable
define dso_local i32 @main() #0 {
  %1 = alloca i32, align 4
  %2 = alloca [301 x i32], align 16
  %3 = alloca i32, align 4
  %4 = alloca i32, align 4
  %5 = alloca i32, align 4
  %6 = alloca i32, align 4
  %7 = alloca [301 x i32], align 16
  %8 = alloca i32, align 4
  %9 = alloca i8, align 1
  store i32 0, i32* %1, align 4
  %10 = bitcast [301 x i32]* %7 to i8*
  call void @llvm.memset.p0i8.i64(i8* align 16 %10, i8 0, i64 1204, i1 false)
  store i32 1, i32* %8, align 4
  store i32 0, i32* %4, align 4
  br label %11

11:                                               ; preds = %22, %0
  %12 = load i32, i32* %4, align 4
  %13 = sext i32 %12 to i64
  %14 = getelementptr inbounds [301 x i32], [301 x i32]* %2, i64 0, i64 %13
  %15 = call i32 (i8*, ...) @__isoc99_scanf(i8* getelementptr inbounds ([5 x i8], [5 x i8]* @.str, i64 0, i64 0), i32* %14, i8* %9)
  %16 = load i32, i32* %4, align 4
  %17 = add nsw i32 %16, 1
  store i32 %17, i32* %4, align 4
  %18 = load i8, i8* %9, align 1
  %19 = sext i8 %18 to i32
  %20 = icmp ne i32 %19, 44
  br i1 %20, label %21, label %22

21:                                               ; preds = %11
  br label %23

22:                                               ; preds = %11
  br label %11

23:                                               ; preds = %21
  %24 = load i32, i32* %4, align 4
  %25 = icmp eq i32 %24, 1
  br i1 %25, label %26, label %28

26:                                               ; preds = %23
  %27 = call i32 (i8*, ...) @printf(i8* getelementptr inbounds ([3 x i8], [3 x i8]* @.str.1, i64 0, i64 0))
  br label %144

28:                                               ; preds = %23
  %29 = load i32, i32* %4, align 4
  store i32 %29, i32* %6, align 4
  br label %30

30:                                               ; preds = %73, %28
  %31 = load i32, i32* %6, align 4
  %32 = icmp sgt i32 %31, 1
  br i1 %32, label %33, label %76

33:                                               ; preds = %30
  store i32 0, i32* %5, align 4
  br label %34

34:                                               ; preds = %69, %33
  %35 = load i32, i32* %5, align 4
  %36 = load i32, i32* %6, align 4
  %37 = sub nsw i32 %36, 1
  %38 = icmp slt i32 %35, %37
  br i1 %38, label %39, label %72

39:                                               ; preds = %34
  %40 = load i32, i32* %5, align 4
  %41 = sext i32 %40 to i64
  %42 = getelementptr inbounds [301 x i32], [301 x i32]* %2, i64 0, i64 %41
  %43 = load i32, i32* %42, align 4
  %44 = load i32, i32* %5, align 4
  %45 = add nsw i32 %44, 1
  %46 = sext i32 %45 to i64
  %47 = getelementptr inbounds [301 x i32], [301 x i32]* %2, i64 0, i64 %46
  %48 = load i32, i32* %47, align 4
  %49 = icmp sgt i32 %43, %48
  br i1 %49, label %50, label %68

50:                                               ; preds = %39
  %51 = load i32, i32* %5, align 4
  %52 = sext i32 %51 to i64
  %53 = getelementptr inbounds [301 x i32], [301 x i32]* %2, i64 0, i64 %52
  %54 = load i32, i32* %53, align 4
  store i32 %54, i32* %3, align 4
  %55 = load i32, i32* %5, align 4
  %56 = add nsw i32 %55, 1
  %57 = sext i32 %56 to i64
  %58 = getelementptr inbounds [301 x i32], [301 x i32]* %2, i64 0, i64 %57
  %59 = load i32, i32* %58, align 4
  %60 = load i32, i32* %5, align 4
  %61 = sext i32 %60 to i64
  %62 = getelementptr inbounds [301 x i32], [301 x i32]* %2, i64 0, i64 %61
  store i32 %59, i32* %62, align 4
  %63 = load i32, i32* %3, align 4
  %64 = load i32, i32* %5, align 4
  %65 = add nsw i32 %64, 1
  %66 = sext i32 %65 to i64
  %67 = getelementptr inbounds [301 x i32], [301 x i32]* %2, i64 0, i64 %66
  store i32 %63, i32* %67, align 4
  br label %68

68:                                               ; preds = %50, %39
  br label %69

69:                                               ; preds = %68
  %70 = load i32, i32* %5, align 4
  %71 = add nsw i32 %70, 1
  store i32 %71, i32* %5, align 4
  br label %34

72:                                               ; preds = %34
  br label %73

73:                                               ; preds = %72
  %74 = load i32, i32* %6, align 4
  %75 = add nsw i32 %74, -1
  store i32 %75, i32* %6, align 4
  br label %30

76:                                               ; preds = %30
  %77 = load i32, i32* %4, align 4
  %78 = sub nsw i32 %77, 1
  %79 = sext i32 %78 to i64
  %80 = getelementptr inbounds [301 x i32], [301 x i32]* %2, i64 0, i64 %79
  %81 = load i32, i32* %80, align 4
  %82 = getelementptr inbounds [301 x i32], [301 x i32]* %7, i64 0, i64 0
  store i32 %81, i32* %82, align 16
  %83 = load i32, i32* %4, align 4
  %84 = sub nsw i32 %83, 2
  store i32 %84, i32* %5, align 4
  br label %85

85:                                               ; preds = %126, %76
  %86 = load i32, i32* %5, align 4
  %87 = icmp sge i32 %86, 0
  br i1 %87, label %88, label %129

88:                                               ; preds = %85
  %89 = load i32, i32* %4, align 4
  store i32 %89, i32* %6, align 4
  br label %90

90:                                               ; preds = %107, %88
  %91 = load i32, i32* %6, align 4
  %92 = load i32, i32* %5, align 4
  %93 = icmp sgt i32 %91, %92
  br i1 %93, label %94, label %110

94:                                               ; preds = %90
  %95 = load i32, i32* %5, align 4
  %96 = sext i32 %95 to i64
  %97 = getelementptr inbounds [301 x i32], [301 x i32]* %2, i64 0, i64 %96
  %98 = load i32, i32* %97, align 4
  %99 = load i32, i32* %6, align 4
  %100 = sext i32 %99 to i64
  %101 = getelementptr inbounds [301 x i32], [301 x i32]* %2, i64 0, i64 %100
  %102 = load i32, i32* %101, align 4
  %103 = icmp eq i32 %98, %102
  br i1 %103, label %104, label %106

104:                                              ; preds = %94
  %105 = load i32, i32* %5, align 4
  store i32 %105, i32* %6, align 4
  br label %106

106:                                              ; preds = %104, %94
  br label %107

107:                                              ; preds = %106
  %108 = load i32, i32* %6, align 4
  %109 = add nsw i32 %108, -1
  store i32 %109, i32* %6, align 4
  br label %90

110:                                              ; preds = %90
  %111 = load i32, i32* %6, align 4
  %112 = load i32, i32* %5, align 4
  %113 = sub nsw i32 %112, 1
  %114 = icmp ne i32 %111, %113
  br i1 %114, label %115, label %125

115:                                              ; preds = %110
  %116 = load i32, i32* %5, align 4
  %117 = sext i32 %116 to i64
  %118 = getelementptr inbounds [301 x i32], [301 x i32]* %2, i64 0, i64 %117
  %119 = load i32, i32* %118, align 4
  %120 = load i32, i32* %8, align 4
  %121 = sext i32 %120 to i64
  %122 = getelementptr inbounds [301 x i32], [301 x i32]* %7, i64 0, i64 %121
  store i32 %119, i32* %122, align 4
  %123 = load i32, i32* %8, align 4
  %124 = add nsw i32 %123, 1
  store i32 %124, i32* %8, align 4
  br label %125

125:                                              ; preds = %115, %110
  br label %126

126:                                              ; preds = %125
  %127 = load i32, i32* %5, align 4
  %128 = add nsw i32 %127, -1
  store i32 %128, i32* %5, align 4
  br label %85

129:                                              ; preds = %85
  %130 = getelementptr inbounds [301 x i32], [301 x i32]* %7, i64 0, i64 1
  %131 = load i32, i32* %130, align 4
  %132 = icmp eq i32 %131, 0
  br i1 %132, label %133, label %139

133:                                              ; preds = %129
  %134 = getelementptr inbounds [301 x i32], [301 x i32]* %7, i64 0, i64 2
  %135 = load i32, i32* %134, align 8
  %136 = icmp eq i32 %135, 0
  br i1 %136, label %137, label %139

137:                                              ; preds = %133
  %138 = call i32 (i8*, ...) @printf(i8* getelementptr inbounds ([3 x i8], [3 x i8]* @.str.1, i64 0, i64 0))
  br label %143

139:                                              ; preds = %133, %129
  %140 = getelementptr inbounds [301 x i32], [301 x i32]* %7, i64 0, i64 1
  %141 = load i32, i32* %140, align 4
  %142 = call i32 (i8*, ...) @printf(i8* getelementptr inbounds ([3 x i8], [3 x i8]* @.str.2, i64 0, i64 0), i32 %141)
  br label %143

143:                                              ; preds = %139, %137
  br label %144

144:                                              ; preds = %143, %26
  ret i32 0
}

; Function Attrs: argmemonly nounwind willreturn
declare void @llvm.memset.p0i8.i64(i8* nocapture writeonly, i8, i64, i1 immarg) #1

declare dso_local i32 @__isoc99_scanf(i8*, ...) #2

declare dso_local i32 @printf(i8*, ...) #2


!llvm.module.flags = !{!0}
!llvm.ident = !{!1}

!0 = !{i32 1, !"wchar_size", i32 4}
!1 = !{!"clang version 10.0.0-4ubuntu1 "}
